target datalayout = "e-m:e-p270:32:32-p271:32:32-p272:64:64-i64:64-i128:128-f80:128-n8:16:32:64-S128"
target triple = "x86_64-pc-linux-gnu"

; Function Attrs: nounwind uwtable
define dso_local double @zend_hex_strtod(ptr noundef %0, ptr noundef %1) #0 {
  %3 = alloca ptr, align 8
  %4 = alloca ptr, align 8
  %5 = alloca ptr, align 8
  %6 = alloca i8, align 1
  %7 = alloca i32, align 4
  %8 = alloca double, align 8
  store ptr %0, ptr %3, align 8, !tbaa !48
  store ptr %1, ptr %4, align 8, !tbaa !49
  call void @llvm.lifetime.start.p0(i64 8, ptr %5) #7
  %9 = load ptr, ptr %3, align 8, !tbaa !48
  store ptr %9, ptr %5, align 8, !tbaa !48
  call void @llvm.lifetime.start.p0(i64 1, ptr %6) #7
  call void @llvm.lifetime.start.p0(i64 4, ptr %7) #7
  store i32 0, ptr %7, align 4, !tbaa !4
  call void @llvm.lifetime.start.p0(i64 8, ptr %8) #7
  store double 0.000000e+00, ptr %8, align 8, !tbaa !58
  %10 = load ptr, ptr %5, align 8, !tbaa !48
  %11 = load i8, ptr %10, align 1, !tbaa !54
  %12 = sext i8 %11 to i32
  %13 = icmp eq i32 %12, 48
  br i1 %13, label %14, label %29

14:                                               ; preds = %2
  %15 = load ptr, ptr %5, align 8, !tbaa !48
  %16 = getelementptr inbounds i8, ptr %15, i64 1
  %17 = load i8, ptr %16, align 1, !tbaa !54
  %18 = sext i8 %17 to i32
  %19 = icmp eq i32 %18, 120
  br i1 %19, label %26, label %20

20:                                               ; preds = %14
  %21 = load ptr, ptr %5, align 8, !tbaa !48
  %22 = getelementptr inbounds i8, ptr %21, i64 1
  %23 = load i8, ptr %22, align 1, !tbaa !54
  %24 = sext i8 %23 to i32
  %25 = icmp eq i32 %24, 88
  br i1 %25, label %26, label %29

26:                                               ; preds = %20, %14
  %27 = load ptr, ptr %5, align 8, !tbaa !48
  %28 = getelementptr inbounds i8, ptr %27, i64 2
  store ptr %28, ptr %5, align 8, !tbaa !48
  br label %29

29:                                               ; preds = %26, %20, %2
  br label %30

30:                                               ; preds = %77, %29
  %31 = load ptr, ptr %5, align 8, !tbaa !48
  %32 = getelementptr inbounds nuw i8, ptr %31, i32 1
  store ptr %32, ptr %5, align 8, !tbaa !48
  %33 = load i8, ptr %31, align 1, !tbaa !54
  store i8 %33, ptr %6, align 1, !tbaa !54
  %34 = icmp ne i8 %33, 0
  br i1 %34, label %35, label %84

35:                                               ; preds = %30
  %36 = load i8, ptr %6, align 1, !tbaa !54
  %37 = sext i8 %36 to i32
  %38 = icmp sge i32 %37, 48
  br i1 %38, label %39, label %48

39:                                               ; preds = %35
  %40 = load i8, ptr %6, align 1, !tbaa !54
  %41 = sext i8 %40 to i32
  %42 = icmp sle i32 %41, 57
  br i1 %42, label %43, label %48

43:                                               ; preds = %39
  %44 = load i8, ptr %6, align 1, !tbaa !54
  %45 = sext i8 %44 to i32
  %46 = sub nsw i32 %45, 48
  %47 = trunc i32 %46 to i8
  store i8 %47, ptr %6, align 1, !tbaa !54
  br label %77

48:                                               ; preds = %39, %35
  %49 = load i8, ptr %6, align 1, !tbaa !54
  %50 = sext i8 %49 to i32
  %51 = icmp sge i32 %50, 65
  br i1 %51, label %52, label %61

52:                                               ; preds = %48
  %53 = load i8, ptr %6, align 1, !tbaa !54
  %54 = sext i8 %53 to i32
  %55 = icmp sle i32 %54, 70
  br i1 %55, label %56, label %61

56:                                               ; preds = %52
  %57 = load i8, ptr %6, align 1, !tbaa !54
  %58 = sext i8 %57 to i32
  %59 = sub nsw i32 %58, 55
  %60 = trunc i32 %59 to i8
  store i8 %60, ptr %6, align 1, !tbaa !54
  br label %76

61:                                               ; preds = %52, %48
  %62 = load i8, ptr %6, align 1, !tbaa !54
  %63 = sext i8 %62 to i32
  %64 = icmp sge i32 %63, 97
  br i1 %64, label %65, label %74

65:                                               ; preds = %61
  %66 = load i8, ptr %6, align 1, !tbaa !54
  %67 = sext i8 %66 to i32
  %68 = icmp sle i32 %67, 102
  br i1 %68, label %69, label %74

69:                                               ; preds = %65
  %70 = load i8, ptr %6, align 1, !tbaa !54
  %71 = sext i8 %70 to i32
  %72 = sub nsw i32 %71, 87
  %73 = trunc i32 %72 to i8
  store i8 %73, ptr %6, align 1, !tbaa !54
  br label %75

74:                                               ; preds = %65, %61
  br label %84

75:                                               ; preds = %69
  br label %76

76:                                               ; preds = %75, %56
  br label %77

77:                                               ; preds = %76, %43
  store i32 1, ptr %7, align 4, !tbaa !4
  %78 = load double, ptr %8, align 8, !tbaa !58
  %79 = fmul double %78, 1.600000e+01
  %80 = load i8, ptr %6, align 1, !tbaa !54
  %81 = sext i8 %80 to i32
  %82 = sitofp i32 %81 to double
  %83 = fadd double %79, %82
  store double %83, ptr %8, align 8, !tbaa !58
  br label %30

84:                                               ; preds = %74, %30
  %85 = load ptr, ptr %4, align 8, !tbaa !49
  %86 = icmp ne ptr %85, null
  br i1 %86, label %87, label %98

87:                                               ; preds = %84
  %88 = load i32, ptr %7, align 4, !tbaa !4
  %89 = icmp ne i32 %88, 0
  br i1 %89, label %90, label %93

90:                                               ; preds = %87
  %91 = load ptr, ptr %5, align 8, !tbaa !48
  %92 = getelementptr inbounds i8, ptr %91, i64 -1
  br label %95

93:                                               ; preds = %87
  %94 = load ptr, ptr %3, align 8, !tbaa !48
  br label %95

95:                                               ; preds = %93, %90
  %96 = phi ptr [ %92, %90 ], [ %94, %93 ]
  %97 = load ptr, ptr %4, align 8, !tbaa !49
  store ptr %96, ptr %97, align 8, !tbaa !48
  br label %98

98:                                               ; preds = %95, %84
  %99 = load double, ptr %8, align 8, !tbaa !58
  call void @llvm.lifetime.end.p0(i64 8, ptr %8) #7
  call void @llvm.lifetime.end.p0(i64 4, ptr %7) #7
  call void @llvm.lifetime.end.p0(i64 1, ptr %6) #7
  call void @llvm.lifetime.end.p0(i64 8, ptr %5) #7
  ret double %99
}