; Function Attrs: nofree norecurse nosync nounwind memory(argmem: readwrite) uwtable
define dso_local double @zend_hex_strtod(ptr noundef %0, ptr noundef writeonly captures(address_is_null) %1) local_unnamed_addr #5 {
  %3 = load i8, ptr %0, align 1, !tbaa !45
  %4 = icmp eq i8 %3, 48
  br i1 %4, label %5, label %10

5:                                                ; preds = %2
  %6 = getelementptr inbounds nuw i8, ptr %0, i64 1
  %7 = load i8, ptr %6, align 1, !tbaa !45
  switch i8 %7, label %.lr.ph.preheader [
    i8 120, label %8
    i8 88, label %8
  ]

8:                                                ; preds = %5, %5
  %9 = getelementptr inbounds nuw i8, ptr %0, i64 2
  %.pre = load i8, ptr %9, align 1, !tbaa !45
  br label %10

10:                                               ; preds = %8, %2
  %11 = phi i8 [ %.pre, %8 ], [ %3, %2 ]
  %.032 = phi ptr [ %9, %8 ], [ %0, %2 ]
  %.not39 = icmp eq i8 %11, 0
  br i1 %.not39, label %._crit_edge, label %.lr.ph.preheader

.lr.ph.preheader:                                 ; preds = %5, %10
  %.ph = phi i8 [ 48, %5 ], [ %11, %10 ]
  %.pn.ph = phi ptr [ %0, %5 ], [ %.032, %10 ]
  br label %.lr.ph

.lr.ph:                                           ; preds = %.lr.ph.preheader, %23
  %12 = phi i8 [ %27, %23 ], [ %.ph, %.lr.ph.preheader ]
  %.pn = phi ptr [ %13, %23 ], [ %.pn.ph, %.lr.ph.preheader ]
  %.041 = phi double [ %26, %23 ], [ 0.000000e+00, %.lr.ph.preheader ]
  %.not3840 = phi ptr [ %13, %23 ], [ %0, %.lr.ph.preheader ]
  %13 = getelementptr inbounds nuw i8, ptr %.pn, i64 1
  %14 = add i8 %12, -48
  %or.cond = icmp ult i8 %14, 10
  br i1 %or.cond, label %23, label %15

15:                                               ; preds = %.lr.ph
  %16 = add i8 %12, -65
  %or.cond5 = icmp ult i8 %16, 6
  br i1 %or.cond5, label %17, label %19

17:                                               ; preds = %15
  %18 = add nsw i8 %12, -55
  br label %23

19:                                               ; preds = %15
  %20 = add i8 %12, -97
  %or.cond8 = icmp ult i8 %20, 6
  br i1 %or.cond8, label %21, label %._crit_edge

21:                                               ; preds = %19
  %22 = add nsw i8 %12, -87
  br label %23

23:                                               ; preds = %.lr.ph, %17, %21
  %.031 = phi i8 [ %18, %17 ], [ %22, %21 ], [ %14, %.lr.ph ]
  %24 = fmul double %.041, 1.600000e+01
  %25 = uitofp nneg i8 %.031 to double
  %26 = fadd double %24, %25
  %27 = load i8, ptr %13, align 1, !tbaa !45
  %.not = icmp eq i8 %27, 0
  br i1 %.not, label %._crit_edge, label %.lr.ph

._crit_edge:                                      ; preds = %23, %19, %10
  %.not38.lcssa = phi ptr [ %0, %10 ], [ %.not3840, %19 ], [ %13, %23 ]
  %.0.lcssa = phi double [ 0.000000e+00, %10 ], [ %.041, %19 ], [ %26, %23 ]
  %.not37 = icmp eq ptr %1, null
  br i1 %.not37, label %29, label %28

28:                                               ; preds = %._crit_edge
  store ptr %.not38.lcssa, ptr %1, align 8, !tbaa !53
  br label %29

29:                                               ; preds = %28, %._crit_edge
  ret double %.0.lcssa
}